target datalayout = "e-m:e-p270:32:32-p271:32:32-p272:64:64-i64:64-i128:128-f80:128-n8:16:32:64-S128"
target triple = "x86_64-pc-linux-gnu"

%struct.Multilevel_Modularity_Clustering_struct = type { i32, i32, ptr, ptr, ptr, ptr, i8, ptr, double, double, ptr, i8 }

; Function Attrs: nounwind uwtable
define internal void @Multilevel_Modularity_Clustering_delete(ptr noundef %0) #0 {
  %2 = alloca ptr, align 8
  store ptr %0, ptr %2, align 8, !tbaa !25
  %3 = load ptr, ptr %2, align 8, !tbaa !25
  %4 = icmp ne ptr %3, null
  br i1 %4, label %6, label %5

5:                                                ; preds = %1
  br label %45

6:                                                ; preds = %1
  %7 = load ptr, ptr %2, align 8, !tbaa !25
  %8 = getelementptr inbounds nuw %struct.Multilevel_Modularity_Clustering_struct, ptr %7, i32 0, i32 2
  %9 = load ptr, ptr %8, align 8, !tbaa !44
  %10 = icmp ne ptr %9, null
  br i1 %10, label %11, label %31

11:                                               ; preds = %6
  %12 = load ptr, ptr %2, align 8, !tbaa !25
  %13 = getelementptr inbounds nuw %struct.Multilevel_Modularity_Clustering_struct, ptr %12, i32 0, i32 0
  %14 = load i32, ptr %13, align 8, !tbaa !45
  %15 = icmp eq i32 %14, 0
  br i1 %15, label %16, label %26

16:                                               ; preds = %11
  %17 = load ptr, ptr %2, align 8, !tbaa !25
  %18 = getelementptr inbounds nuw %struct.Multilevel_Modularity_Clustering_struct, ptr %17, i32 0, i32 6
  %19 = load i8, ptr %18, align 8, !tbaa !39, !range !18, !noundef !19
  %20 = trunc i8 %19 to i1
  br i1 %20, label %21, label %25

21:                                               ; preds = %16
  %22 = load ptr, ptr %2, align 8, !tbaa !25
  %23 = getelementptr inbounds nuw %struct.Multilevel_Modularity_Clustering_struct, ptr %22, i32 0, i32 2
  %24 = load ptr, ptr %23, align 8, !tbaa !44
  call void @SparseMatrix_delete(ptr noundef %24)
  br label %25

25:                                               ; preds = %21, %16
  br label %30

26:                                               ; preds = %11
  %27 = load ptr, ptr %2, align 8, !tbaa !25
  %28 = getelementptr inbounds nuw %struct.Multilevel_Modularity_Clustering_struct, ptr %27, i32 0, i32 2
  %29 = load ptr, ptr %28, align 8, !tbaa !44
  call void @SparseMatrix_delete(ptr noundef %29)
  br label %30

30:                                               ; preds = %26, %25
  br label %31

31:                                               ; preds = %30, %6
  %32 = load ptr, ptr %2, align 8, !tbaa !25
  %33 = getelementptr inbounds nuw %struct.Multilevel_Modularity_Clustering_struct, ptr %32, i32 0, i32 3
  %34 = load ptr, ptr %33, align 8, !tbaa !36
  call void @SparseMatrix_delete(ptr noundef %34)
  %35 = load ptr, ptr %2, align 8, !tbaa !25
  %36 = getelementptr inbounds nuw %struct.Multilevel_Modularity_Clustering_struct, ptr %35, i32 0, i32 7
  %37 = load ptr, ptr %36, align 8, !tbaa !32
  call void @free(ptr noundef %37) #9
  %38 = load ptr, ptr %2, align 8, !tbaa !25
  %39 = getelementptr inbounds nuw %struct.Multilevel_Modularity_Clustering_struct, ptr %38, i32 0, i32 10
  %40 = load ptr, ptr %39, align 8, !tbaa !46
  call void @free(ptr noundef %40) #9
  %41 = load ptr, ptr %2, align 8, !tbaa !25
  %42 = getelementptr inbounds nuw %struct.Multilevel_Modularity_Clustering_struct, ptr %41, i32 0, i32 4
  %43 = load ptr, ptr %42, align 8, !tbaa !27
  call void @Multilevel_Modularity_Clustering_delete(ptr noundef %43)
  %44 = load ptr, ptr %2, align 8, !tbaa !25
  call void @free(ptr noundef %44) #9
  br label %45

45:                                               ; preds = %31, %5
  ret void
}